; Function Attrs: mustprogress uwtable
define hidden void @_ZN3smt15theory_datatype10clear_markEv(ptr nocapture noundef nonnull readonly align 8 dereferenceable(728) %this) local_unnamed_addr #3 align 2 {
entry:
  %m_to_unmark = getelementptr inbounds i8, ptr %this, i64 648
  %0 = load ptr, ptr %m_to_unmark, align 8
  %cmp.i = icmp eq ptr %0, null
  br i1 %cmp.i, label %_ZNK6vectorIPN3smt5enodeELb0EjE4sizeEv.exit, label %if.end.i

if.end.i:                                         ; preds = %entry
  %arrayidx.i = getelementptr inbounds i8, ptr %0, i64 -4
  %1 = load i32, ptr %arrayidx.i, align 4
  br label %_ZNK6vectorIPN3smt5enodeELb0EjE4sizeEv.exit

_ZNK6vectorIPN3smt5enodeELb0EjE4sizeEv.exit:      ; preds = %entry, %if.end.i
  %retval.0.i = phi i32 [ %1, %if.end.i ], [ 0, %entry ]
  tail call void @_ZN3smt13unmark_enodesEjPKPNS_5enodeE(i32 noundef %retval.0.i, ptr noundef %0)
  %m_to_unmark24 = getelementptr inbounds i8, ptr %this, i64 656
  %2 = load ptr, ptr %m_to_unmark24, align 8
  %cmp.i1 = icmp eq ptr %2, null
  br i1 %cmp.i1, label %_ZNK6vectorIPN3smt5enodeELb0EjE4sizeEv.exit5, label %if.end.i2

if.end.i2:                                        ; preds = %_ZNK6vectorIPN3smt5enodeELb0EjE4sizeEv.exit
  %arrayidx.i3 = getelementptr inbounds i8, ptr %2, i64 -4
  %3 = load i32, ptr %arrayidx.i3, align 4
  br label %_ZNK6vectorIPN3smt5enodeELb0EjE4sizeEv.exit5

_ZNK6vectorIPN3smt5enodeELb0EjE4sizeEv.exit5:     ; preds = %_ZNK6vectorIPN3smt5enodeELb0EjE4sizeEv.exit, %if.end.i2
  %retval.0.i4 = phi i32 [ %3, %if.end.i2 ], [ 0, %_ZNK6vectorIPN3smt5enodeELb0EjE4sizeEv.exit ]
  tail call void @_ZN3smt14unmark_enodes2EjPKPNS_5enodeE(i32 noundef %retval.0.i4, ptr noundef %2)
  %4 = load ptr, ptr %m_to_unmark, align 8
  %tobool.not.i = icmp eq ptr %4, null
  br i1 %tobool.not.i, label %_ZN6vectorIPN3smt5enodeELb0EjE5resetEv.exit, label %if.then.i

if.then.i:                                        ; preds = %_ZNK6vectorIPN3smt5enodeELb0EjE4sizeEv.exit5
  %arrayidx.i6 = getelementptr inbounds i8, ptr %4, i64 -4
  store i32 0, ptr %arrayidx.i6, align 4
  br label %_ZN6vectorIPN3smt5enodeELb0EjE5resetEv.exit

_ZN6vectorIPN3smt5enodeELb0EjE5resetEv.exit:      ; preds = %_ZNK6vectorIPN3smt5enodeELb0EjE4sizeEv.exit5, %if.then.i
  %5 = load ptr, ptr %m_to_unmark24, align 8
  %tobool.not.i8 = icmp eq ptr %5, null
  br i1 %tobool.not.i8, label %_ZN6vectorIPN3smt5enodeELb0EjE5resetEv.exit12, label %if.then.i9

if.then.i9:                                       ; preds = %_ZN6vectorIPN3smt5enodeELb0EjE5resetEv.exit
  %arrayidx.i10 = getelementptr inbounds i8, ptr %5, i64 -4
  store i32 0, ptr %arrayidx.i10, align 4
  br label %_ZN6vectorIPN3smt5enodeELb0EjE5resetEv.exit12

_ZN6vectorIPN3smt5enodeELb0EjE5resetEv.exit12:    ; preds = %_ZN6vectorIPN3smt5enodeELb0EjE5resetEv.exit, %if.then.i9
  ret void
}